target datalayout = "e-m:e-p270:32:32-p271:32:32-p272:64:64-i64:64-i128:128-f80:128-n8:16:32:64-S128"
target triple = "x86_64-pc-linux-gnu"

%struct.lhash_st = type { ptr, ptr, ptr, ptr, ptr, ptr, ptr, i32, i32, i32, i32, i64, i64, i64, i32 }
%struct.lhash_node_st = type { ptr, ptr, i64 }

; Function Attrs: nounwind uwtable
define internal ptr @getrn(ptr noundef %0, ptr noundef %1, ptr noundef %2) #0 {
  %4 = alloca ptr, align 8
  %5 = alloca ptr, align 8
  %6 = alloca ptr, align 8
  %7 = alloca ptr, align 8
  %8 = alloca ptr, align 8
  %9 = alloca i64, align 8
  %10 = alloca i64, align 8
  store ptr %0, ptr %4, align 8, !tbaa !3
  store ptr %1, ptr %5, align 8, !tbaa !8
  store ptr %2, ptr %6, align 8, !tbaa !45
  call void @llvm.lifetime.start.p0(i64 8, ptr %7) #5
  call void @llvm.lifetime.start.p0(i64 8, ptr %8) #5
  call void @llvm.lifetime.start.p0(i64 8, ptr %9) #5
  call void @llvm.lifetime.start.p0(i64 8, ptr %10) #5
  %11 = load ptr, ptr %4, align 8, !tbaa !3
  %12 = getelementptr inbounds nuw %struct.lhash_st, ptr %11, i32 0, i32 3
  %13 = load ptr, ptr %12, align 8, !tbaa !14
  %14 = icmp ne ptr %13, null
  br i1 %14, label %15, label %24

15:                                               ; preds = %3
  %16 = load ptr, ptr %4, align 8, !tbaa !3
  %17 = getelementptr inbounds nuw %struct.lhash_st, ptr %16, i32 0, i32 3
  %18 = load ptr, ptr %17, align 8, !tbaa !14
  %19 = load ptr, ptr %5, align 8, !tbaa !8
  %20 = load ptr, ptr %4, align 8, !tbaa !3
  %21 = getelementptr inbounds nuw %struct.lhash_st, ptr %20, i32 0, i32 2
  %22 = load ptr, ptr %21, align 8, !tbaa !19
  %23 = call i64 %18(ptr noundef %19, ptr noundef %22)
  store i64 %23, ptr %9, align 8, !tbaa !27
  br label %30

24:                                               ; preds = %3
  %25 = load ptr, ptr %4, align 8, !tbaa !3
  %26 = getelementptr inbounds nuw %struct.lhash_st, ptr %25, i32 0, i32 2
  %27 = load ptr, ptr %26, align 8, !tbaa !19
  %28 = load ptr, ptr %5, align 8, !tbaa !8
  %29 = call i64 %27(ptr noundef %28)
  store i64 %29, ptr %9, align 8, !tbaa !27
  br label %30

30:                                               ; preds = %24, %15
  %31 = load i64, ptr %9, align 8, !tbaa !27
  %32 = load ptr, ptr %6, align 8, !tbaa !45
  store i64 %31, ptr %32, align 8, !tbaa !27
  %33 = load i64, ptr %9, align 8, !tbaa !27
  %34 = load ptr, ptr %4, align 8, !tbaa !3
  %35 = getelementptr inbounds nuw %struct.lhash_st, ptr %34, i32 0, i32 10
  %36 = load i32, ptr %35, align 4, !tbaa !22
  %37 = zext i32 %36 to i64
  %38 = urem i64 %33, %37
  store i64 %38, ptr %10, align 8, !tbaa !27
  %39 = load i64, ptr %10, align 8, !tbaa !27
  %40 = load ptr, ptr %4, align 8, !tbaa !3
  %41 = getelementptr inbounds nuw %struct.lhash_st, ptr %40, i32 0, i32 9
  %42 = load i32, ptr %41, align 8, !tbaa !43
  %43 = zext i32 %42 to i64
  %44 = icmp ult i64 %39, %43
  br i1 %44, label %45, label %52

45:                                               ; preds = %30
  %46 = load i64, ptr %9, align 8, !tbaa !27
  %47 = load ptr, ptr %4, align 8, !tbaa !3
  %48 = getelementptr inbounds nuw %struct.lhash_st, ptr %47, i32 0, i32 8
  %49 = load i32, ptr %48, align 4, !tbaa !21
  %50 = zext i32 %49 to i64
  %51 = urem i64 %46, %50
  store i64 %51, ptr %10, align 8, !tbaa !27
  br label %52

52:                                               ; preds = %45, %30
  %53 = load ptr, ptr %4, align 8, !tbaa !3
  %54 = getelementptr inbounds nuw %struct.lhash_st, ptr %53, i32 0, i32 0
  %55 = load ptr, ptr %54, align 8, !tbaa !17
  %56 = load i64, ptr %10, align 8, !tbaa !27
  %57 = trunc i64 %56 to i32
  %58 = sext i32 %57 to i64
  %59 = getelementptr inbounds ptr, ptr %55, i64 %58
  store ptr %59, ptr %7, align 8, !tbaa !40
  %60 = load ptr, ptr %7, align 8, !tbaa !40
  %61 = load ptr, ptr %60, align 8, !tbaa !32
  store ptr %61, ptr %8, align 8, !tbaa !32
  br label %62

62:                                               ; preds = %109, %52
  %63 = load ptr, ptr %8, align 8, !tbaa !32
  %64 = icmp ne ptr %63, null
  br i1 %64, label %65, label %113

65:                                               ; preds = %62
  %66 = load ptr, ptr %8, align 8, !tbaa !32
  %67 = getelementptr inbounds nuw %struct.lhash_node_st, ptr %66, i32 0, i32 2
  %68 = load i64, ptr %67, align 8, !tbaa !42
  %69 = load i64, ptr %9, align 8, !tbaa !27
  %70 = icmp ne i64 %68, %69
  br i1 %70, label %71, label %74

71:                                               ; preds = %65
  %72 = load ptr, ptr %8, align 8, !tbaa !32
  %73 = getelementptr inbounds nuw %struct.lhash_node_st, ptr %72, i32 0, i32 1
  store ptr %73, ptr %7, align 8, !tbaa !40
  br label %109

74:                                               ; preds = %65
  %75 = load ptr, ptr %4, align 8, !tbaa !3
  %76 = getelementptr inbounds nuw %struct.lhash_st, ptr %75, i32 0, i32 4
  %77 = load ptr, ptr %76, align 8, !tbaa !9
  %78 = icmp ne ptr %77, null
  br i1 %78, label %79, label %94

79:                                               ; preds = %74
  %80 = load ptr, ptr %4, align 8, !tbaa !3
  %81 = getelementptr inbounds nuw %struct.lhash_st, ptr %80, i32 0, i32 4
  %82 = load ptr, ptr %81, align 8, !tbaa !9
  %83 = load ptr, ptr %8, align 8, !tbaa !32
  %84 = getelementptr inbounds nuw %struct.lhash_node_st, ptr %83, i32 0, i32 0
  %85 = load ptr, ptr %84, align 8, !tbaa !41
  %86 = load ptr, ptr %5, align 8, !tbaa !8
  %87 = load ptr, ptr %4, align 8, !tbaa !3
  %88 = getelementptr inbounds nuw %struct.lhash_st, ptr %87, i32 0, i32 1
  %89 = load ptr, ptr %88, align 8, !tbaa !18
  %90 = call i32 %82(ptr noundef %85, ptr noundef %86, ptr noundef %89)
  %91 = icmp eq i32 %90, 0
  br i1 %91, label %92, label %93

92:                                               ; preds = %79
  br label %113

93:                                               ; preds = %79
  br label %106

94:                                               ; preds = %74
  %95 = load ptr, ptr %4, align 8, !tbaa !3
  %96 = getelementptr inbounds nuw %struct.lhash_st, ptr %95, i32 0, i32 1
  %97 = load ptr, ptr %96, align 8, !tbaa !18
  %98 = load ptr, ptr %8, align 8, !tbaa !32
  %99 = getelementptr inbounds nuw %struct.lhash_node_st, ptr %98, i32 0, i32 0
  %100 = load ptr, ptr %99, align 8, !tbaa !41
  %101 = load ptr, ptr %5, align 8, !tbaa !8
  %102 = call i32 %97(ptr noundef %100, ptr noundef %101)
  %103 = icmp eq i32 %102, 0
  br i1 %103, label %104, label %105

104:                                              ; preds = %94
  br label %113

105:                                              ; preds = %94
  br label %106

106:                                              ; preds = %105, %93
  %107 = load ptr, ptr %8, align 8, !tbaa !32
  %108 = getelementptr inbounds nuw %struct.lhash_node_st, ptr %107, i32 0, i32 1
  store ptr %108, ptr %7, align 8, !tbaa !40
  br label %109

109:                                              ; preds = %106, %71
  %110 = load ptr, ptr %8, align 8, !tbaa !32
  %111 = getelementptr inbounds nuw %struct.lhash_node_st, ptr %110, i32 0, i32 1
  %112 = load ptr, ptr %111, align 8, !tbaa !34
  store ptr %112, ptr %8, align 8, !tbaa !32
  br label %62, !llvm.loop !47

113:                                              ; preds = %104, %92, %62
  %114 = load ptr, ptr %7, align 8, !tbaa !40
  call void @llvm.lifetime.end.p0(i64 8, ptr %10) #5
  call void @llvm.lifetime.end.p0(i64 8, ptr %9) #5
  call void @llvm.lifetime.end.p0(i64 8, ptr %8) #5
  call void @llvm.lifetime.end.p0(i64 8, ptr %7) #5
  ret ptr %114
}

; Function Attrs: nounwind uwtable
define ptr @OPENSSL_LH_retrieve(ptr noundef %0, ptr noundef %1) #0 {
  %3 = alloca ptr, align 8
  %4 = alloca ptr, align 8
  %5 = alloca i64, align 8
  %6 = alloca ptr, align 8
  store ptr %0, ptr %3, align 8, !tbaa !3
  store ptr %1, ptr %4, align 8, !tbaa !8
  call void @llvm.lifetime.start.p0(i64 8, ptr %5) #5
  call void @llvm.lifetime.start.p0(i64 8, ptr %6) #5
  %7 = load ptr, ptr %3, align 8, !tbaa !3
  %8 = getelementptr inbounds nuw %struct.lhash_st, ptr %7, i32 0, i32 14
  %9 = load i32, ptr %8, align 8, !tbaa !39
  %10 = icmp ne i32 %9, 0
  br i1 %10, label %11, label %14

11:                                               ; preds = %2
  %12 = load ptr, ptr %3, align 8, !tbaa !3
  %13 = getelementptr inbounds nuw %struct.lhash_st, ptr %12, i32 0, i32 14
  store i32 0, ptr %13, align 8, !tbaa !39
  br label %14

14:                                               ; preds = %11, %2
  %15 = load ptr, ptr %3, align 8, !tbaa !3
  %16 = load ptr, ptr %4, align 8, !tbaa !8
  %17 = call ptr @getrn(ptr noundef %15, ptr noundef %16, ptr noundef %5)
  store ptr %17, ptr %6, align 8, !tbaa !40
  %18 = load ptr, ptr %6, align 8, !tbaa !40
  %19 = load ptr, ptr %18, align 8, !tbaa !32
  %20 = icmp eq ptr %19, null
  br i1 %20, label %21, label %22

21:                                               ; preds = %14
  br label %27

22:                                               ; preds = %14
  %23 = load ptr, ptr %6, align 8, !tbaa !40
  %24 = load ptr, ptr %23, align 8, !tbaa !32
  %25 = getelementptr inbounds nuw %struct.lhash_node_st, ptr %24, i32 0, i32 0
  %26 = load ptr, ptr %25, align 8, !tbaa !41
  br label %27

27:                                               ; preds = %22, %21
  %28 = phi ptr [ null, %21 ], [ %26, %22 ]
  call void @llvm.lifetime.end.p0(i64 8, ptr %6) #5
  call void @llvm.lifetime.end.p0(i64 8, ptr %5) #5
  ret ptr %28
}