; Function Attrs: nounwind uwtable
define ptr @OPENSSL_LH_retrieve(ptr noundef captures(none) %0, ptr noundef %1) local_unnamed_addr #1 {
  %3 = getelementptr inbounds nuw i8, ptr %0, i64 96
  %4 = load i32, ptr %3, align 8, !tbaa !32
  %.not = icmp eq i32 %4, 0
  br i1 %.not, label %6, label %5

5:                                                ; preds = %2
  store i32 0, ptr %3, align 8, !tbaa !32
  br label %6

6:                                                ; preds = %5, %2
  %7 = getelementptr inbounds nuw i8, ptr %0, i64 24
  %8 = load ptr, ptr %7, align 8, !tbaa !11
  %.not.i = icmp eq ptr %8, null
  %9 = getelementptr inbounds nuw i8, ptr %0, i64 16
  %10 = load ptr, ptr %9, align 8, !tbaa !16
  br i1 %.not.i, label %13, label %11

11:                                               ; preds = %6
  %12 = tail call i64 %8(ptr noundef %1, ptr noundef %10) #7
  br label %15

13:                                               ; preds = %6
  %14 = tail call i64 %10(ptr noundef %1) #7
  br label %15

15:                                               ; preds = %13, %11
  %.031.i = phi i64 [ %12, %11 ], [ %14, %13 ]
  %16 = getelementptr inbounds nuw i8, ptr %0, i64 68
  %17 = load i32, ptr %16, align 4, !tbaa !19
  %18 = zext i32 %17 to i64
  %19 = urem i64 %.031.i, %18
  %20 = getelementptr inbounds nuw i8, ptr %0, i64 64
  %21 = load i32, ptr %20, align 8, !tbaa !33
  %22 = zext i32 %21 to i64
  %23 = icmp samesign ult i64 %19, %22
  br i1 %23, label %24, label %29

24:                                               ; preds = %15
  %25 = getelementptr inbounds nuw i8, ptr %0, i64 60
  %26 = load i32, ptr %25, align 4, !tbaa !18
  %27 = zext i32 %26 to i64
  %28 = urem i64 %.031.i, %27
  br label %29

29:                                               ; preds = %24, %15
  %.0.i = phi i64 [ %28, %24 ], [ %19, %15 ]
  %30 = load ptr, ptr %0, align 8, !tbaa !14
  %sext.i = shl nuw i64 %.0.i, 32
  %31 = ashr exact i64 %sext.i, 29
  %32 = getelementptr inbounds i8, ptr %30, i64 %31
  %33 = getelementptr inbounds nuw i8, ptr %0, i64 8
  %.03240.i = load ptr, ptr %32, align 8, !tbaa !25
  %.not3741.i = icmp eq ptr %.03240.i, null
  br i1 %.not3741.i, label %getrn.exit.thread, label %.lr.ph.i

.lr.ph.i:                                         ; preds = %29
  %34 = getelementptr inbounds nuw i8, ptr %0, i64 32
  br label %35

35:                                               ; preds = %50, %.lr.ph.i
  %.03243.i = phi ptr [ %.03240.i, %.lr.ph.i ], [ %.032.i, %50 ]
  %.03342.i = phi ptr [ %32, %.lr.ph.i ], [ %.1.i, %50 ]
  %36 = getelementptr inbounds nuw i8, ptr %.03243.i, i64 16
  %37 = load i64, ptr %36, align 8, !tbaa !34
  %.not38.i = icmp eq i64 %37, %.031.i
  br i1 %.not38.i, label %38, label %50

38:                                               ; preds = %35
  %39 = load ptr, ptr %34, align 8, !tbaa !3
  %.not39.i = icmp eq ptr %39, null
  br i1 %.not39.i, label %45, label %40

40:                                               ; preds = %38
  %41 = load ptr, ptr %.03243.i, align 8, !tbaa !36
  %42 = load ptr, ptr %33, align 8, !tbaa !15
  %43 = tail call i32 %39(ptr noundef %41, ptr noundef %1, ptr noundef %42) #7
  %44 = icmp eq i32 %43, 0
  br i1 %44, label %getrn.exit, label %50

45:                                               ; preds = %38
  %46 = load ptr, ptr %33, align 8, !tbaa !15
  %47 = load ptr, ptr %.03243.i, align 8, !tbaa !36
  %48 = tail call i32 %46(ptr noundef %47, ptr noundef %1) #7
  %49 = icmp eq i32 %48, 0
  br i1 %49, label %getrn.exit, label %50

50:                                               ; preds = %45, %40, %35
  %.1.i = getelementptr inbounds nuw i8, ptr %.03243.i, i64 8
  %.032.i = load ptr, ptr %.1.i, align 8, !tbaa !25
  %.not37.i = icmp eq ptr %.032.i, null
  br i1 %.not37.i, label %getrn.exit.thread, label %35, !llvm.loop !37

getrn.exit:                                       ; preds = %40, %45
  %.pr = load ptr, ptr %.03342.i, align 8, !tbaa !25
  %51 = icmp eq ptr %.pr, null
  br i1 %51, label %getrn.exit.thread, label %52

52:                                               ; preds = %getrn.exit
  %53 = load ptr, ptr %.pr, align 8, !tbaa !36
  br label %getrn.exit.thread

getrn.exit.thread:                                ; preds = %50, %29, %getrn.exit, %52
  %54 = phi ptr [ %53, %52 ], [ null, %getrn.exit ], [ null, %29 ], [ null, %50 ]
  ret ptr %54
}